target datalayout = "e-m:e-p270:32:32-p271:32:32-p272:64:64-i64:64-i128:128-f80:128-n8:16:32:64-S128"
target triple = "x86_64-pc-linux-gnu"

%struct.reassembly_table = type { ptr, ptr, ptr, ptr, ptr }
%struct.reassembly_table_functions = type { ptr, ptr, ptr, ptr, ptr, ptr }

@.str.146 = private unnamed_addr constant [32 x i8] c"ISO 8327-1 OSI Session Protocol\00", align 1
@.str.147 = private unnamed_addr constant [4 x i8] c"SES\00", align 1
@.str.148 = private unnamed_addr constant [4 x i8] c"ses\00", align 1
@proto_ses = internal global i32 0, align 4
@ses_reassembly_table = internal global %struct.reassembly_table zeroinitializer, align 8
@addresses_reassembly_table_functions = external constant %struct.reassembly_table_functions, align 8
@.str.149 = private unnamed_addr constant [10 x i8] c"desegment\00", align 1
@.str.150 = private unnamed_addr constant [28 x i8] c"Reassemble session packets \00", align 1
@.str.151 = private unnamed_addr constant [88 x i8] c"Whether the session dissector should reassemble messages spanning multiple SES segments\00", align 1
@ses_desegment = internal global i8 1, align 1

; Function Attrs: null_pointer_is_valid sspstrong uwtable
define hidden void @proto_register_ses() #1 {
  %1 = alloca ptr, align 8
  %2 = alloca ptr, align 8
  call void @llvm.lifetime.start.p0(i64 8, ptr %1) #4
  call void @llvm.lifetime.start.p0(i64 8, ptr %2) #4
  %3 = call i32 @proto_register_protocol(ptr noundef @.str.146, ptr noundef @.str.147, ptr noundef @.str.148)
  store i32 %3, ptr @proto_ses, align 4
  %4 = load i32, ptr @proto_ses, align 4
  call void @proto_register_field_array(i32 noundef %4, ptr noundef @proto_register_ses.hf, i32 noundef 72)
  call void @proto_register_subtree_array(ptr noundef @proto_register_ses.ett, i32 noundef 10)
  %5 = load i32, ptr @proto_ses, align 4
  %6 = call ptr @expert_register_protocol(i32 noundef %5)
  store ptr %6, ptr %2, align 8
  %7 = load ptr, ptr %2, align 8
  call void @expert_register_field_array(ptr noundef %7, ptr noundef @proto_register_ses.ei, i32 noundef 2)
  call void @reassembly_table_register(ptr noundef @ses_reassembly_table, ptr noundef @addresses_reassembly_table_functions)
  %8 = load i32, ptr @proto_ses, align 4
  %9 = call ptr @prefs_register_protocol(i32 noundef %8, ptr noundef null)
  store ptr %9, ptr %1, align 8
  %10 = load ptr, ptr %1, align 8
  call void @prefs_register_bool_preference(ptr noundef %10, ptr noundef @.str.149, ptr noundef @.str.150, ptr noundef @.str.151, ptr noundef @ses_desegment)
  %11 = load i32, ptr @proto_ses, align 4
  %12 = call ptr @register_dissector(ptr noundef @.str.148, ptr noundef @dissect_ses, i32 noundef %11)
  call void @llvm.lifetime.end.p0(i64 8, ptr %2) #4
  call void @llvm.lifetime.end.p0(i64 8, ptr %1) #4
  ret void
}