; Function Attrs: null_pointer_is_valid sspstrong uwtable
define hidden void @proto_register_ses() local_unnamed_addr #1 {
  %1 = tail call i32 @proto_register_protocol(ptr noundef nonnull @.str.146, ptr noundef nonnull @.str.147, ptr noundef nonnull @.str.148)
  store i32 %1, ptr @proto_ses, align 4
  tail call void @proto_register_field_array(i32 noundef %1, ptr noundef nonnull @proto_register_ses.hf, i32 noundef 72)
  tail call void @proto_register_subtree_array(ptr noundef nonnull @proto_register_ses.ett, i32 noundef 10)
  %2 = load i32, ptr @proto_ses, align 4
  %3 = tail call ptr @expert_register_protocol(i32 noundef %2)
  tail call void @expert_register_field_array(ptr noundef %3, ptr noundef nonnull @proto_register_ses.ei, i32 noundef 2)
  tail call void @reassembly_table_register(ptr noundef nonnull @ses_reassembly_table, ptr noundef nonnull @addresses_reassembly_table_functions)
  %4 = load i32, ptr @proto_ses, align 4
  %5 = tail call ptr @prefs_register_protocol(i32 noundef %4, ptr noundef null)
  tail call void @prefs_register_bool_preference(ptr noundef %5, ptr noundef nonnull @.str.149, ptr noundef nonnull @.str.150, ptr noundef nonnull @.str.151, ptr noundef nonnull @ses_desegment)
  %6 = load i32, ptr @proto_ses, align 4
  %7 = tail call ptr @register_dissector(ptr noundef nonnull @.str.148, ptr noundef nonnull @dissect_ses, i32 noundef %6)
  ret void
}